target datalayout = "e-m:e-p270:32:32-p271:32:32-p272:64:64-i64:64-i128:128-f80:128-n8:16:32:64-S128"
target triple = "x86_64-pc-linux-gnu"

; Function Attrs: nounwind uwtable
define dso_local ptr @pg_get_indexdef_columns_extended(i32 noundef %0, i16 noundef zeroext %1) #0 {
  %3 = alloca i32, align 4
  %4 = alloca i16, align 2
  %5 = alloca i8, align 1
  %6 = alloca i8, align 1
  %7 = alloca i32, align 4
  store i32 %0, ptr %3, align 4
  store i16 %1, ptr %4, align 2
  call void @llvm.lifetime.start.p0(i64 1, ptr %5) #10
  %8 = load i16, ptr %4, align 2
  %9 = zext i16 %8 to i32
  %10 = and i32 %9, 1
  %11 = icmp ne i32 %10, 0
  %12 = zext i1 %11 to i8
  store i8 %12, ptr %5, align 1
  call void @llvm.lifetime.start.p0(i64 1, ptr %6) #10
  %13 = load i16, ptr %4, align 2
  %14 = zext i16 %13 to i32
  %15 = and i32 %14, 2
  %16 = icmp ne i32 %15, 0
  %17 = zext i1 %16 to i8
  store i8 %17, ptr %6, align 1
  call void @llvm.lifetime.start.p0(i64 4, ptr %7) #10
  %18 = load i8, ptr %5, align 1, !range !4, !noundef !5
  %19 = trunc i8 %18 to i1
  %20 = select i1 %19, i32 7, i32 2
  store i32 %20, ptr %7, align 4
  %21 = load i32, ptr %3, align 4
  %22 = load i8, ptr %6, align 1, !range !4, !noundef !5
  %23 = trunc i8 %22 to i1
  %24 = load i32, ptr %7, align 4
  %25 = call ptr @pg_get_indexdef_worker(i32 noundef %21, i32 noundef 0, ptr noundef null, i1 noundef zeroext true, i1 noundef zeroext %23, i1 noundef zeroext false, i1 noundef zeroext false, i32 noundef %24, i1 noundef zeroext false)
  call void @llvm.lifetime.end.p0(i64 4, ptr %7) #10
  call void @llvm.lifetime.end.p0(i64 1, ptr %6) #10
  call void @llvm.lifetime.end.p0(i64 1, ptr %5) #10
  ret ptr %25
}