; Function Attrs: nounwind uwtable
define dso_local ptr @pg_get_indexdef_columns_extended(i32 noundef %0, i16 noundef zeroext %1) local_unnamed_addr #0 {
  %3 = zext i16 %1 to i32
  %4 = and i32 %3, 1
  %.not = icmp eq i32 %4, 0
  %5 = and i32 %3, 2
  %6 = icmp ne i32 %5, 0
  %7 = select i1 %.not, i32 2, i32 7
  %8 = tail call fastcc ptr @pg_get_indexdef_worker(i32 noundef %0, i32 noundef 0, ptr noundef null, i1 noundef zeroext true, i1 noundef zeroext %6, i1 noundef zeroext false, i1 noundef zeroext false, i32 noundef %7, i1 noundef zeroext false)
  ret ptr %8
}